; Function Attrs: mustprogress uwtable
define dso_local noundef i64 @_ZN16cmLocalGenerator25GetBackwardsCompatibilityEv(ptr nocapture noundef nonnull align 8 dereferenceable(824) %0) local_unnamed_addr #3 align 2 personality ptr @__gxx_personality_v0 {
  %2 = alloca i32, align 4
  %3 = alloca i32, align 4
  %4 = alloca i32, align 4
  %5 = alloca %"class.std::__cxx11::basic_string", align 8
  %6 = alloca %"class.std::allocator", align 1
  %7 = getelementptr inbounds i8, ptr %0, i64 760
  %8 = load i8, ptr %7, align 8
  %9 = and i8 %8, 1
  %.not = icmp eq i8 %9, 0
  br i1 %.not, label %10, label %._crit_edge7

._crit_edge7:                                     ; preds = %1
  %.phi.trans.insert = getelementptr inbounds i8, ptr %0, i64 752
  %.pre8 = load i64, ptr %.phi.trans.insert, align 8
  br label %40

10:                                               ; preds = %1
  store i32 0, ptr %2, align 4
  store i32 0, ptr %3, align 4
  store i32 0, ptr %4, align 4
  %11 = getelementptr inbounds i8, ptr %0, i64 112
  %12 = load ptr, ptr %11, align 8
  call void @_ZNSaIcEC1Ev(ptr noundef nonnull align 1 dereferenceable(1) %6) #23
  %13 = invoke noundef ptr @_ZNSt7__cxx1112basic_stringIcSt11char_traitsIcESaIcEE13_M_local_dataEv(ptr noundef nonnull align 8 dereferenceable(32) %5)
          to label %.noexc unwind label %23

.noexc:                                           ; preds = %10
  invoke void @_ZNSt7__cxx1112basic_stringIcSt11char_traitsIcESaIcEE12_Alloc_hiderC1EPcRKS3_(ptr noundef nonnull align 8 dereferenceable(8) %5, ptr noundef %13, ptr noundef nonnull align 1 dereferenceable(1) %6)
          to label %.noexc4 unwind label %23

.noexc4:                                          ; preds = %.noexc
  invoke void @_ZNSt7__cxx1112basic_stringIcSt11char_traitsIcESaIcEE12_M_constructIPKcEEvT_S8_St20forward_iterator_tag(ptr noundef nonnull align 8 dereferenceable(32) %5, ptr noundef nonnull @.str.395, ptr noundef nonnull getelementptr inbounds ([30 x i8], ptr @.str.395, i64 0, i64 29))
          to label %_ZNSt7__cxx1112basic_stringIcSt11char_traitsIcESaIcEEC2IS3_EEPKcRKS3_.exit unwind label %14

14:                                               ; preds = %.noexc4
  %15 = landingpad { ptr, i32 }
          cleanup
  call void @_ZNSaIcED2Ev(ptr noundef nonnull align 1 dereferenceable(1) %5) #23
  br label %.body

_ZNSt7__cxx1112basic_stringIcSt11char_traitsIcESaIcEEC2IS3_EEPKcRKS3_.exit: ; preds = %.noexc4
  %16 = invoke ptr @_ZNK10cmMakefile13GetDefinitionERKNSt7__cxx1112basic_stringIcSt11char_traitsIcESaIcEEE(ptr noundef nonnull align 8 dereferenceable(3520) %12, ptr noundef nonnull align 8 dereferenceable(32) %5)
          to label %17 unwind label %25

17:                                               ; preds = %_ZNSt7__cxx1112basic_stringIcSt11char_traitsIcESaIcEEC2IS3_EEPKcRKS3_.exit
  call void @_ZNSt7__cxx1112basic_stringIcSt11char_traitsIcESaIcEED1Ev(ptr noundef nonnull align 8 dereferenceable(32) %5) #23
  call void @_ZNSaIcED1Ev(ptr noundef nonnull align 1 dereferenceable(1) %6) #23
  %.not6 = icmp eq ptr %16, null
  br i1 %.not6, label %28, label %18

18:                                               ; preds = %17
  %19 = call noundef ptr @_ZNKSt7__cxx1112basic_stringIcSt11char_traitsIcESaIcEE5c_strEv(ptr noundef nonnull align 8 dereferenceable(32) %16) #23
  %20 = call i32 (ptr, ptr, ...) @__isoc99_sscanf(ptr noundef %19, ptr noundef nonnull @.str.396, ptr noundef nonnull %2, ptr noundef nonnull %3, ptr noundef nonnull %4) #23
  switch i32 %20, label %._crit_edge [
    i32 2, label %28
    i32 1, label %27
  ]

._crit_edge:                                      ; preds = %18
  %.pre = load i32, ptr %4, align 4
  %21 = urem i32 %.pre, 100000000
  %22 = zext nneg i32 %21 to i64
  br label %28

23:                                               ; preds = %.noexc, %10
  %24 = landingpad { ptr, i32 }
          cleanup
  br label %.body

25:                                               ; preds = %_ZNSt7__cxx1112basic_stringIcSt11char_traitsIcESaIcEEC2IS3_EEPKcRKS3_.exit
  %26 = landingpad { ptr, i32 }
          cleanup
  call void @_ZNSt7__cxx1112basic_stringIcSt11char_traitsIcESaIcEED1Ev(ptr noundef nonnull align 8 dereferenceable(32) %5) #23
  br label %.body

.body:                                            ; preds = %23, %14, %25
  %.pn = phi { ptr, i32 } [ %26, %25 ], [ %24, %23 ], [ %15, %14 ]
  call void @_ZNSaIcED1Ev(ptr noundef nonnull align 1 dereferenceable(1) %6) #23
  resume { ptr, i32 } %.pn

27:                                               ; preds = %18
  store i32 0, ptr %3, align 4
  br label %28

28:                                               ; preds = %18, %._crit_edge, %27, %17
  %29 = phi i64 [ %22, %._crit_edge ], [ 0, %27 ], [ 0, %17 ], [ 0, %18 ]
  %30 = load i32, ptr %2, align 4
  %31 = mul i32 %30, 1000
  %32 = zext i32 %31 to i64
  %33 = load i32, ptr %3, align 4
  %34 = urem i32 %33, 1000
  %35 = zext nneg i32 %34 to i64
  %36 = add nuw nsw i64 %35, %32
  %37 = mul nuw nsw i64 %36, 100000000
  %38 = add nuw nsw i64 %37, %29
  %39 = getelementptr inbounds i8, ptr %0, i64 752
  store i64 %38, ptr %39, align 8
  store i8 1, ptr %7, align 8
  br label %40

40:                                               ; preds = %._crit_edge7, %28
  %41 = phi i64 [ %.pre8, %._crit_edge7 ], [ %38, %28 ]
  ret i64 %41
}